target datalayout = "e-m:e-p270:32:32-p271:32:32-p272:64:64-i64:64-i128:128-f80:128-n8:16:32:64-S128"
target triple = "x86_64-pc-linux-gnu"

%"class.std::__cxx11::basic_string" = type { %"struct.std::__cxx11::basic_string<char>::_Alloc_hider", i64, %union.anon }
%"struct.std::__cxx11::basic_string<char>::_Alloc_hider" = type { ptr }
%union.anon = type { i64, [8 x i8] }
%"struct.duckdb::LogicalType" = type { i8, i8, %"class.duckdb::shared_ptr" }
%"class.duckdb::shared_ptr" = type { %"class.std::shared_ptr" }
%"class.std::shared_ptr" = type { %"class.std::__shared_ptr" }
%"class.std::__shared_ptr" = type { ptr, %"class.std::__shared_count" }
%"class.std::__shared_count" = type { ptr }
%"class.duckdb::optional_idx" = type { i64 }
%"class.duckdb::Expression" = type { %"class.duckdb::BaseExpression", %"struct.duckdb::LogicalType", %"class.duckdb::unique_ptr" }
%"class.duckdb::BaseExpression" = type { ptr, i8, i8, %"class.std::__cxx11::basic_string", %"class.duckdb::optional_idx" }
%"class.duckdb::unique_ptr" = type { %"class.std::unique_ptr" }
%"class.std::unique_ptr" = type { %"struct.std::__uniq_ptr_data" }
%"struct.std::__uniq_ptr_data" = type { %"class.std::__uniq_ptr_impl" }
%"class.std::__uniq_ptr_impl" = type { %"class.std::tuple" }
%"class.std::tuple" = type { %"struct.std::_Tuple_impl" }
%"struct.std::_Tuple_impl" = type { %"struct.std::_Head_base.15" }
%"struct.std::_Head_base.15" = type { ptr }
%"class.duckdb::BaseStatistics" = type { %"struct.duckdb::LogicalType", i8, i8, i64, %union.anon.37, %"class.duckdb::unique_ptr.38" }
%union.anon.37 = type { %"struct.duckdb::NumericStatsData" }
%"struct.duckdb::NumericStatsData" = type { i8, i8, %"struct.duckdb::NumericValueUnion", %"struct.duckdb::NumericValueUnion" }
%"struct.duckdb::NumericValueUnion" = type { %"union.duckdb::NumericValueUnion::Val" }
%"union.duckdb::NumericValueUnion::Val" = type { %"struct.duckdb::hugeint_t" }
%"struct.duckdb::hugeint_t" = type { i64, i64 }
%"class.duckdb::unique_ptr.38" = type { %"class.std::unique_ptr.39" }
%"class.std::unique_ptr.39" = type { %"struct.std::__uniq_ptr_data.40" }
%"struct.std::__uniq_ptr_data.40" = type { %"class.std::__uniq_ptr_impl.41" }
%"class.std::__uniq_ptr_impl.41" = type { %"class.std::tuple.42" }
%"class.std::tuple.42" = type { %"struct.std::_Tuple_impl.43" }
%"struct.std::_Tuple_impl.43" = type { %"struct.std::_Head_base.15" }
%"struct.duckdb::FunctionStatisticsInput" = type { ptr, %"class.duckdb::optional_ptr", ptr, ptr }
%"class.duckdb::optional_ptr" = type { ptr }
%"struct.std::_Vector_base.18" = type { %"struct.std::_Vector_base<duckdb::BaseStatistics, std::allocator<duckdb::BaseStatistics>>::_Vector_impl" }
%"struct.std::_Vector_base<duckdb::BaseStatistics, std::allocator<duckdb::BaseStatistics>>::_Vector_impl" = type { %"struct.std::_Vector_base<duckdb::BaseStatistics, std::allocator<duckdb::BaseStatistics>>::_Vector_impl_data" }
%"struct.std::_Vector_base<duckdb::BaseStatistics, std::allocator<duckdb::BaseStatistics>>::_Vector_impl_data" = type { ptr, ptr, ptr }

; Function Attrs: mustprogress nounwind uwtable
define linkonce_odr noundef i64 @_ZNKSt6vectorIN6duckdb14BaseStatisticsESaIS1_EE4sizeEv(ptr noundef nonnull align 8 dereferenceable(24) %0) #2 comdat align 2 {
  %2 = alloca ptr, align 8
  store ptr %0, ptr %2, align 8, !tbaa !170
  %3 = load ptr, ptr %2, align 8
  %4 = getelementptr inbounds nuw %"struct.std::_Vector_base.18", ptr %3, i32 0, i32 0
  %5 = getelementptr inbounds nuw %"struct.std::_Vector_base<duckdb::BaseStatistics, std::allocator<duckdb::BaseStatistics>>::_Vector_impl_data", ptr %4, i32 0, i32 1
  %6 = load ptr, ptr %5, align 8, !tbaa !172
  %7 = getelementptr inbounds nuw %"struct.std::_Vector_base.18", ptr %3, i32 0, i32 0
  %8 = getelementptr inbounds nuw %"struct.std::_Vector_base<duckdb::BaseStatistics, std::allocator<duckdb::BaseStatistics>>::_Vector_impl_data", ptr %7, i32 0, i32 0
  %9 = load ptr, ptr %8, align 8, !tbaa !174
  %10 = ptrtoint ptr %6 to i64
  %11 = ptrtoint ptr %9 to i64
  %12 = sub i64 %10, %11
  %13 = sdiv exact i64 %12, 88
  ret i64 %13
}

; Function Attrs: mustprogress uwtable
define void @_ZN6duckdb15ArrayValueStatsERNS_13ClientContextERNS_23FunctionStatisticsInputE(ptr dead_on_unwind noalias writable sret(%"class.duckdb::unique_ptr") align 8 %0, ptr noundef nonnull align 8 dereferenceable(648) %1, ptr noundef nonnull align 8 dereferenceable(32) %2) #0 personality ptr @__gxx_personality_v0 {
  %4 = alloca ptr, align 8
  %5 = alloca ptr, align 8
  %6 = alloca ptr, align 8
  %7 = alloca ptr, align 8
  %8 = alloca ptr, align 8
  %9 = alloca %"class.duckdb::BaseStatistics", align 8
  %10 = alloca %"struct.duckdb::LogicalType", align 8
  %11 = alloca ptr, align 8
  %12 = alloca i32, align 4
  %13 = alloca ptr, align 8
  %14 = alloca i64, align 8
  store ptr %0, ptr %4, align 8
  store ptr %1, ptr %5, align 8, !tbaa !155
  store ptr %2, ptr %6, align 8, !tbaa !157
  call void @llvm.lifetime.start.p0(i64 8, ptr %7) #8
  %15 = load ptr, ptr %6, align 8, !tbaa !157
  %16 = getelementptr inbounds nuw %"struct.duckdb::FunctionStatisticsInput", ptr %15, i32 0, i32 2
  %17 = load ptr, ptr %16, align 8, !tbaa !159
  store ptr %17, ptr %7, align 8, !tbaa !165
  call void @llvm.lifetime.start.p0(i64 8, ptr %8) #8
  %18 = load ptr, ptr %6, align 8, !tbaa !157
  %19 = getelementptr inbounds nuw %"struct.duckdb::FunctionStatisticsInput", ptr %18, i32 0, i32 0
  %20 = load ptr, ptr %19, align 8, !tbaa !166
  store ptr %20, ptr %8, align 8, !tbaa !89
  call void @llvm.lifetime.start.p0(i64 88, ptr %9) #8
  %21 = load ptr, ptr %8, align 8, !tbaa !89
  %22 = getelementptr inbounds nuw %"class.duckdb::Expression", ptr %21, i32 0, i32 1
  call void @_ZN6duckdb11LogicalTypeC1ERKS0_(ptr noundef nonnull align 8 dereferenceable(24) %10, ptr noundef nonnull align 8 dereferenceable(24) %22)
  invoke void @_ZN6duckdb10ArrayStats11CreateEmptyENS_11LogicalTypeE(ptr dead_on_unwind writable sret(%"class.duckdb::BaseStatistics") align 8 %9, ptr noundef %10)
          to label %23 unwind label %32

23:                                               ; preds = %3
  call void @_ZN6duckdb11LogicalTypeD1Ev(ptr noundef nonnull align 8 dereferenceable(24) %10) #8
  call void @llvm.lifetime.start.p0(i64 8, ptr %13) #8
  %24 = invoke noundef nonnull align 8 dereferenceable(88) ptr @_ZN6duckdb10ArrayStats13GetChildStatsERNS_14BaseStatisticsE(ptr noundef nonnull align 8 dereferenceable(88) %9)
          to label %25 unwind label %36

25:                                               ; preds = %23
  store ptr %24, ptr %13, align 8, !tbaa !167
  call void @llvm.lifetime.start.p0(i64 8, ptr %14) #8
  store i64 0, ptr %14, align 8, !tbaa !41
  br label %26

26:                                               ; preds = %47, %25
  %27 = load i64, ptr %14, align 8, !tbaa !41
  %28 = load ptr, ptr %7, align 8, !tbaa !165
  %29 = call noundef i64 @_ZNKSt6vectorIN6duckdb14BaseStatisticsESaIS1_EE4sizeEv(ptr noundef nonnull align 8 dereferenceable(24) %28) #8
  %30 = icmp ult i64 %27, %29
  br i1 %30, label %40, label %31

31:                                               ; preds = %26
  call void @llvm.lifetime.end.p0(i64 8, ptr %14) #8
  br label %54

32:                                               ; preds = %3
  %33 = landingpad { ptr, i32 }
          cleanup
  %34 = extractvalue { ptr, i32 } %33, 0
  store ptr %34, ptr %11, align 8
  %35 = extractvalue { ptr, i32 } %33, 1
  store i32 %35, ptr %12, align 4
  call void @_ZN6duckdb11LogicalTypeD1Ev(ptr noundef nonnull align 8 dereferenceable(24) %10) #8
  br label %57

36:                                               ; preds = %54, %23
  %37 = landingpad { ptr, i32 }
          cleanup
  %38 = extractvalue { ptr, i32 } %37, 0
  store ptr %38, ptr %11, align 8
  %39 = extractvalue { ptr, i32 } %37, 1
  store i32 %39, ptr %12, align 4
  br label %56

40:                                               ; preds = %26
  %41 = load ptr, ptr %13, align 8, !tbaa !167
  %42 = load ptr, ptr %7, align 8, !tbaa !165
  %43 = load i64, ptr %14, align 8, !tbaa !41
  %44 = invoke noundef nonnull align 8 dereferenceable(88) ptr @_ZN6duckdb6vectorINS_14BaseStatisticsELb1EEixEm(ptr noundef nonnull align 8 dereferenceable(24) %42, i64 noundef %43)
          to label %45 unwind label %50

45:                                               ; preds = %40
  invoke void @_ZN6duckdb14BaseStatistics5MergeERKS0_(ptr noundef nonnull align 8 dereferenceable(88) %41, ptr noundef nonnull align 8 dereferenceable(88) %44)
          to label %46 unwind label %50

46:                                               ; preds = %45
  br label %47

47:                                               ; preds = %46
  %48 = load i64, ptr %14, align 8, !tbaa !41
  %49 = add i64 %48, 1
  store i64 %49, ptr %14, align 8, !tbaa !41
  br label %26, !llvm.loop !169

50:                                               ; preds = %45, %40
  %51 = landingpad { ptr, i32 }
          cleanup
  %52 = extractvalue { ptr, i32 } %51, 0
  store ptr %52, ptr %11, align 8
  %53 = extractvalue { ptr, i32 } %51, 1
  store i32 %53, ptr %12, align 4
  call void @llvm.lifetime.end.p0(i64 8, ptr %14) #8
  br label %56

54:                                               ; preds = %31
  invoke void @_ZNK6duckdb14BaseStatistics8ToUniqueEv(ptr dead_on_unwind writable sret(%"class.duckdb::unique_ptr") align 8 %0, ptr noundef nonnull align 8 dereferenceable(88) %9)
          to label %55 unwind label %36

55:                                               ; preds = %54
  call void @llvm.lifetime.end.p0(i64 8, ptr %13) #8
  call void @_ZN6duckdb14BaseStatisticsD1Ev(ptr noundef nonnull align 8 dereferenceable(88) %9) #8
  call void @llvm.lifetime.end.p0(i64 88, ptr %9) #8
  call void @llvm.lifetime.end.p0(i64 8, ptr %8) #8
  call void @llvm.lifetime.end.p0(i64 8, ptr %7) #8
  ret void

56:                                               ; preds = %50, %36
  call void @llvm.lifetime.end.p0(i64 8, ptr %13) #8
  call void @_ZN6duckdb14BaseStatisticsD1Ev(ptr noundef nonnull align 8 dereferenceable(88) %9) #8
  br label %57

57:                                               ; preds = %56, %32
  call void @llvm.lifetime.end.p0(i64 88, ptr %9) #8
  call void @llvm.lifetime.end.p0(i64 8, ptr %8) #8
  call void @llvm.lifetime.end.p0(i64 8, ptr %7) #8
  br label %58

58:                                               ; preds = %57
  %59 = load ptr, ptr %11, align 8
  %60 = load i32, ptr %12, align 4
  %61 = insertvalue { ptr, i32 } poison, ptr %59, 0
  %62 = insertvalue { ptr, i32 } %61, i32 %60, 1
  resume { ptr, i32 } %62
}